target datalayout = "e-m:e-p270:32:32-p271:32:32-p272:64:64-i64:64-i128:128-f80:128-n8:16:32:64-S128"
target triple = "x86_64-pc-linux-gnu"

%struct.timespec = type { i64, i64 }

@.str.34 = private unnamed_addr constant [5 x i8] c"%s =\00", align 1
@.str.35 = private unnamed_addr constant [8 x i8] c"Minbase\00", align 1
@.str.36 = private unnamed_addr constant [11 x i8] c"%9.2f sec\0A\00", align 1

; Function Attrs: inlinehint nounwind uwtable
define internal i64 @Abc_Clock() #2 {
  %1 = alloca i64, align 8
  %2 = alloca %struct.timespec, align 8
  %3 = alloca i32, align 4
  %4 = alloca i64, align 8
  call void @llvm.lifetime.start.p0(i64 16, ptr %2) #9
  %5 = call i32 @clock_gettime(i32 noundef 1, ptr noundef %2) #9
  %6 = icmp slt i32 %5, 0
  br i1 %6, label %7, label %8

7:                                                ; preds = %0
  store i64 -1, ptr %1, align 8
  store i32 1, ptr %3, align 4
  br label %19

8:                                                ; preds = %0
  call void @llvm.lifetime.start.p0(i64 8, ptr %4) #9
  %9 = getelementptr inbounds nuw %struct.timespec, ptr %2, i32 0, i32 0
  %10 = load i64, ptr %9, align 8, !tbaa !89
  %11 = mul nsw i64 %10, 1000000
  store i64 %11, ptr %4, align 8, !tbaa !81
  %12 = getelementptr inbounds nuw %struct.timespec, ptr %2, i32 0, i32 1
  %13 = load i64, ptr %12, align 8, !tbaa !91
  %14 = mul nsw i64 %13, 1000000
  %15 = sdiv i64 %14, 1000000000
  %16 = load i64, ptr %4, align 8, !tbaa !81
  %17 = add nsw i64 %16, %15
  store i64 %17, ptr %4, align 8, !tbaa !81
  %18 = load i64, ptr %4, align 8, !tbaa !81
  store i64 %18, ptr %1, align 8
  store i32 1, ptr %3, align 4
  call void @llvm.lifetime.end.p0(i64 8, ptr %4) #9
  br label %19

19:                                               ; preds = %8, %7
  call void @llvm.lifetime.end.p0(i64 16, ptr %2) #9
  %20 = load i64, ptr %1, align 8
  ret i64 %20
}

; Function Attrs: nounwind uwtable
define void @Nwk_ManMinimumBaseRec(ptr noundef %0, i32 noundef %1) #0 {
  %3 = alloca ptr, align 8
  %4 = alloca i32, align 4
  %5 = alloca i32, align 4
  %6 = alloca i64, align 8
  store ptr %0, ptr %3, align 8, !tbaa !3
  store i32 %1, ptr %4, align 4, !tbaa !17
  call void @llvm.lifetime.start.p0(i64 4, ptr %5) #9
  call void @llvm.lifetime.start.p0(i64 8, ptr %6) #9
  %7 = call i64 @Abc_Clock()
  store i64 %7, ptr %6, align 8, !tbaa !81
  store i32 0, ptr %5, align 4, !tbaa !17
  br label %8

8:                                                ; preds = %14, %2
  %9 = load ptr, ptr %3, align 8, !tbaa !3
  %10 = load i32, ptr %4, align 4, !tbaa !17
  %11 = call i32 @Nwk_ManMinimumBaseInt(ptr noundef %9, i32 noundef %10)
  %12 = icmp ne i32 %11, 0
  br i1 %12, label %13, label %17

13:                                               ; preds = %8
  br label %14

14:                                               ; preds = %13
  %15 = load i32, ptr %5, align 4, !tbaa !17
  %16 = add nsw i32 %15, 1
  store i32 %16, ptr %5, align 4, !tbaa !17
  br label %8, !llvm.loop !83

17:                                               ; preds = %8
  call void (i32, ptr, ...) @Abc_Print(i32 noundef 1, ptr noundef @.str.34, ptr noundef @.str.35)
  %18 = call i64 @Abc_Clock()
  %19 = load i64, ptr %6, align 8, !tbaa !81
  %20 = sub nsw i64 %18, %19
  %21 = sitofp i64 %20 to double
  %22 = fmul double 1.000000e+00, %21
  %23 = fdiv double %22, 1.000000e+06
  call void (i32, ptr, ...) @Abc_Print(i32 noundef 1, ptr noundef @.str.36, double noundef %23)
  call void @llvm.lifetime.end.p0(i64 8, ptr %6) #9
  call void @llvm.lifetime.end.p0(i64 4, ptr %5) #9
  ret void
}