; Function Attrs: nounwind uwtable
define void @Nwk_ManMinimumBaseRec(ptr noundef readonly captures(none) %0, i32 noundef %1) local_unnamed_addr #3 {
  %3 = alloca %struct.timespec, align 8
  %4 = alloca %struct.timespec, align 8
  call void @llvm.lifetime.start.p0(i64 16, ptr nonnull %4) #17
  %5 = call i32 @clock_gettime(i32 noundef 1, ptr noundef nonnull %4) #17
  %6 = icmp slt i32 %5, 0
  br i1 %6, label %Abc_Clock.exit, label %7

7:                                                ; preds = %2
  %8 = load i64, ptr %4, align 8, !tbaa !70
  %.neg5 = mul i64 %8, -1000000
  %9 = getelementptr inbounds nuw i8, ptr %4, i64 8
  %10 = load i64, ptr %9, align 8, !tbaa !73
  %.neg = sdiv i64 %10, -1000
  %.neg6 = add i64 %.neg, %.neg5
  br label %Abc_Clock.exit

Abc_Clock.exit:                                   ; preds = %2, %7
  %.0.i.neg = phi i64 [ %.neg6, %7 ], [ 1, %2 ]
  call void @llvm.lifetime.end.p0(i64 16, ptr nonnull %4) #17
  br label %11

11:                                               ; preds = %11, %Abc_Clock.exit
  %12 = call i32 @Nwk_ManMinimumBaseInt(ptr noundef %0, i32 noundef %1)
  %.not = icmp eq i32 %12, 0
  br i1 %.not, label %13, label %11, !llvm.loop !74

13:                                               ; preds = %11
  call void (i32, ptr, ...) @Abc_Print(i32 poison, ptr noundef nonnull @.str.34, ptr noundef nonnull @.str.35)
  call void @llvm.lifetime.start.p0(i64 16, ptr nonnull %3) #17
  %14 = call i32 @clock_gettime(i32 noundef 1, ptr noundef nonnull %3) #17
  %15 = icmp slt i32 %14, 0
  br i1 %15, label %Abc_Clock.exit4, label %16

16:                                               ; preds = %13
  %17 = load i64, ptr %3, align 8, !tbaa !70
  %18 = mul nsw i64 %17, 1000000
  %19 = getelementptr inbounds nuw i8, ptr %3, i64 8
  %20 = load i64, ptr %19, align 8, !tbaa !73
  %21 = sdiv i64 %20, 1000
  %22 = add nsw i64 %21, %18
  br label %Abc_Clock.exit4

Abc_Clock.exit4:                                  ; preds = %13, %16
  %.0.i3 = phi i64 [ %22, %16 ], [ -1, %13 ]
  call void @llvm.lifetime.end.p0(i64 16, ptr nonnull %3) #17
  %23 = add i64 %.0.i3, %.0.i.neg
  %24 = sitofp i64 %23 to double
  %25 = fdiv double %24, 1.000000e+06
  call void (i32, ptr, ...) @Abc_Print(i32 poison, ptr noundef nonnull @.str.36, double noundef %25)
  ret void
}